target datalayout = "e-m:e-p270:32:32-p271:32:32-p272:64:64-i64:64-i128:128-f80:128-n8:16:32:64-S128"
target triple = "x86_64-pc-linux-gnu"

%struct.List = type { i32, i32, i32, ptr, [0 x %union.ListCell] }
%union.ListCell = type { ptr }
%struct.StringInfoData = type { ptr, i32, i32, i32 }

@.str.50 = private unnamed_addr constant [4 x i8] c"%s(\00", align 1
@.str.51 = private unnamed_addr constant [3 x i8] c", \00", align 1
@.str.52 = private unnamed_addr constant [7 x i8] c"%s => \00", align 1

; Function Attrs: inlinehint nounwind uwtable
define internal ptr @lnext(ptr noundef %0, ptr noundef %1) #3 {
  %3 = alloca ptr, align 8
  %4 = alloca ptr, align 8
  %5 = alloca ptr, align 8
  store ptr %0, ptr %4, align 8
  store ptr %1, ptr %5, align 8
  %6 = load ptr, ptr %5, align 8
  %7 = getelementptr inbounds nuw %union.ListCell, ptr %6, i32 1
  store ptr %7, ptr %5, align 8
  %8 = load ptr, ptr %5, align 8
  %9 = load ptr, ptr %4, align 8
  %10 = getelementptr inbounds nuw %struct.List, ptr %9, i32 0, i32 3
  %11 = load ptr, ptr %10, align 8
  %12 = load ptr, ptr %4, align 8
  %13 = getelementptr inbounds nuw %struct.List, ptr %12, i32 0, i32 1
  %14 = load i32, ptr %13, align 4
  %15 = sext i32 %14 to i64
  %16 = getelementptr inbounds %union.ListCell, ptr %11, i64 %15
  %17 = icmp ult ptr %8, %16
  br i1 %17, label %18, label %20

18:                                               ; preds = %2
  %19 = load ptr, ptr %5, align 8
  store ptr %19, ptr %3, align 8
  br label %21

20:                                               ; preds = %2
  store ptr null, ptr %3, align 8
  br label %21

21:                                               ; preds = %20, %18
  %22 = load ptr, ptr %3, align 8
  ret ptr %22
}

; Function Attrs: inlinehint nounwind uwtable
define internal ptr @list_head(ptr noundef %0) #3 {
  %2 = alloca ptr, align 8
  store ptr %0, ptr %2, align 8
  %3 = load ptr, ptr %2, align 8
  %4 = icmp ne ptr %3, null
  br i1 %4, label %5, label %10

5:                                                ; preds = %1
  %6 = load ptr, ptr %2, align 8
  %7 = getelementptr inbounds nuw %struct.List, ptr %6, i32 0, i32 3
  %8 = load ptr, ptr %7, align 8
  %9 = getelementptr inbounds %union.ListCell, ptr %8, i64 0
  br label %11

10:                                               ; preds = %1
  br label %11

11:                                               ; preds = %10, %5
  %12 = phi ptr [ %9, %5 ], [ null, %10 ]
  ret ptr %12
}

; Function Attrs: inlinehint nounwind uwtable
define internal i32 @list_length(ptr noundef %0) #3 {
  %2 = alloca ptr, align 8
  store ptr %0, ptr %2, align 8
  %3 = load ptr, ptr %2, align 8
  %4 = icmp ne ptr %3, null
  br i1 %4, label %5, label %9

5:                                                ; preds = %1
  %6 = load ptr, ptr %2, align 8
  %7 = getelementptr inbounds nuw %struct.List, ptr %6, i32 0, i32 1
  %8 = load i32, ptr %7, align 4
  br label %10

9:                                                ; preds = %1
  br label %10

10:                                               ; preds = %9, %5
  %11 = phi i32 [ %8, %5 ], [ 0, %9 ]
  ret i32 %11
}

; Function Attrs: nounwind uwtable
define dso_local ptr @funcname_signature_string(ptr noundef %0, i32 noundef %1, ptr noundef %2, ptr noundef %3) #0 {
  %5 = alloca ptr, align 8
  %6 = alloca i32, align 4
  %7 = alloca ptr, align 8
  %8 = alloca ptr, align 8
  %9 = alloca %struct.StringInfoData, align 8
  %10 = alloca i32, align 4
  %11 = alloca ptr, align 8
  %12 = alloca i32, align 4
  store ptr %0, ptr %5, align 8
  store i32 %1, ptr %6, align 4
  store ptr %2, ptr %7, align 8
  store ptr %3, ptr %8, align 8
  call void @llvm.lifetime.start.p0(i64 24, ptr %9) #7
  call void @llvm.lifetime.start.p0(i64 4, ptr %10) #7
  call void @llvm.lifetime.start.p0(i64 8, ptr %11) #7
  call void @llvm.lifetime.start.p0(i64 4, ptr %12) #7
  call void @initStringInfo(ptr noundef %9)
  %13 = load ptr, ptr %5, align 8
  call void (ptr, ptr, ...) @appendStringInfo(ptr noundef %9, ptr noundef @.str.50, ptr noundef %13)
  %14 = load i32, ptr %6, align 4
  %15 = load ptr, ptr %7, align 8
  %16 = call i32 @list_length(ptr noundef %15)
  %17 = sub i32 %14, %16
  store i32 %17, ptr %10, align 4
  %18 = load ptr, ptr %7, align 8
  %19 = call ptr @list_head(ptr noundef %18)
  store ptr %19, ptr %11, align 8
  store i32 0, ptr %12, align 4
  br label %20

20:                                               ; preds = %45, %4
  %21 = load i32, ptr %12, align 4
  %22 = load i32, ptr %6, align 4
  %23 = icmp slt i32 %21, %22
  br i1 %23, label %24, label %48

24:                                               ; preds = %20
  %25 = load i32, ptr %12, align 4
  %26 = icmp ne i32 %25, 0
  br i1 %26, label %27, label %28

27:                                               ; preds = %24
  call void @appendStringInfoString(ptr noundef %9, ptr noundef @.str.51)
  br label %28

28:                                               ; preds = %27, %24
  %29 = load i32, ptr %12, align 4
  %30 = load i32, ptr %10, align 4
  %31 = icmp sge i32 %29, %30
  br i1 %31, label %32, label %38

32:                                               ; preds = %28
  %33 = load ptr, ptr %11, align 8
  %34 = load ptr, ptr %33, align 8
  call void (ptr, ptr, ...) @appendStringInfo(ptr noundef %9, ptr noundef @.str.52, ptr noundef %34)
  %35 = load ptr, ptr %7, align 8
  %36 = load ptr, ptr %11, align 8
  %37 = call ptr @lnext(ptr noundef %35, ptr noundef %36)
  store ptr %37, ptr %11, align 8
  br label %38

38:                                               ; preds = %32, %28
  %39 = load ptr, ptr %8, align 8
  %40 = load i32, ptr %12, align 4
  %41 = sext i32 %40 to i64
  %42 = getelementptr inbounds i32, ptr %39, i64 %41
  %43 = load i32, ptr %42, align 4
  %44 = call ptr @format_type_be(i32 noundef %43)
  call void @appendStringInfoString(ptr noundef %9, ptr noundef %44)
  br label %45

45:                                               ; preds = %38
  %46 = load i32, ptr %12, align 4
  %47 = add i32 %46, 1
  store i32 %47, ptr %12, align 4
  br label %20, !llvm.loop !32

48:                                               ; preds = %20
  call void @appendStringInfoChar(ptr noundef %9, i8 noundef signext 41)
  %49 = getelementptr inbounds nuw %struct.StringInfoData, ptr %9, i32 0, i32 0
  %50 = load ptr, ptr %49, align 8
  call void @llvm.lifetime.end.p0(i64 4, ptr %12) #7
  call void @llvm.lifetime.end.p0(i64 8, ptr %11) #7
  call void @llvm.lifetime.end.p0(i64 4, ptr %10) #7
  call void @llvm.lifetime.end.p0(i64 24, ptr %9) #7
  ret ptr %50
}