; Function Attrs: nounwind uwtable
define dso_local ptr @funcname_signature_string(ptr noundef %0, i32 noundef %1, ptr noundef readonly captures(address_is_null) %2, ptr noundef readonly captures(none) %3) local_unnamed_addr #0 {
  %5 = alloca %struct.StringInfoData, align 8
  call void @llvm.lifetime.start.p0(i64 24, ptr nonnull %5) #8
  call void @initStringInfo(ptr noundef nonnull %5) #8
  call void (ptr, ptr, ...) @appendStringInfo(ptr noundef nonnull %5, ptr noundef nonnull @.str.50, ptr noundef %0) #8
  %.not.i = icmp eq ptr %2, null
  br i1 %.not.i, label %list_head.exit, label %6

6:                                                ; preds = %4
  %7 = getelementptr inbounds nuw i8, ptr %2, i64 4
  %8 = load i32, ptr %7, align 4
  %9 = sub i32 %1, %8
  %10 = getelementptr inbounds nuw i8, ptr %2, i64 16
  %11 = load ptr, ptr %10, align 8
  br label %list_head.exit

list_head.exit:                                   ; preds = %4, %6
  %12 = phi i32 [ %9, %6 ], [ %1, %4 ]
  %13 = phi ptr [ %11, %6 ], [ null, %4 ]
  %14 = icmp sgt i32 %1, 0
  br i1 %14, label %.lr.ph, label %._crit_edge

.lr.ph:                                           ; preds = %list_head.exit
  %15 = getelementptr i8, ptr %2, i64 4
  %16 = getelementptr i8, ptr %2, i64 16
  %17 = sext i32 %12 to i64
  %wide.trip.count = zext nneg i32 %1 to i64
  br label %18

18:                                               ; preds = %.lr.ph, %27
  %indvars.iv = phi i64 [ 0, %.lr.ph ], [ %indvars.iv.next, %27 ]
  %.01418 = phi ptr [ %13, %.lr.ph ], [ %.1, %27 ]
  %.not = icmp eq i64 %indvars.iv, 0
  br i1 %.not, label %20, label %19

19:                                               ; preds = %18
  call void @appendStringInfoString(ptr noundef nonnull %5, ptr noundef nonnull @.str.51) #8
  br label %20

20:                                               ; preds = %19, %18
  %.not15 = icmp slt i64 %indvars.iv, %17
  br i1 %.not15, label %27, label %21

21:                                               ; preds = %20
  %22 = load ptr, ptr %.01418, align 8
  call void (ptr, ptr, ...) @appendStringInfo(ptr noundef nonnull %5, ptr noundef nonnull @.str.52, ptr noundef %22) #8
  %.val = load i32, ptr %15, align 4
  %.val16 = load ptr, ptr %16, align 8
  %23 = getelementptr inbounds nuw i8, ptr %.01418, i64 8
  %24 = sext i32 %.val to i64
  %25 = getelementptr inbounds %union.ListCell, ptr %.val16, i64 %24
  %26 = icmp ult ptr %23, %25
  %..i = select i1 %26, ptr %23, ptr null
  br label %27

27:                                               ; preds = %21, %20
  %.1 = phi ptr [ %..i, %21 ], [ %.01418, %20 ]
  %28 = getelementptr inbounds nuw i32, ptr %3, i64 %indvars.iv
  %29 = load i32, ptr %28, align 4
  %30 = call ptr @format_type_be(i32 noundef %29) #8
  call void @appendStringInfoString(ptr noundef nonnull %5, ptr noundef %30) #8
  %indvars.iv.next = add nuw nsw i64 %indvars.iv, 1
  %exitcond.not = icmp eq i64 %indvars.iv.next, %wide.trip.count
  br i1 %exitcond.not, label %._crit_edge, label %18, !llvm.loop !26

._crit_edge:                                      ; preds = %27, %list_head.exit
  call void @appendStringInfoChar(ptr noundef nonnull %5, i8 noundef signext 41) #8
  %31 = load ptr, ptr %5, align 8
  call void @llvm.lifetime.end.p0(i64 24, ptr nonnull %5) #8
  ret ptr %31
}